; ModuleID = '56/835.c'
source_filename = "56/835.c"
target datalayout = "e-m:e-p270:32:32-p271:32:32-p272:64:64-i64:64-f80:128-n8:16:32:64-S128"
target triple = "x86_64-pc-linux-gnu"

@.str = private unnamed_addr constant [3 x i8] c"%c\00", align 1

; Function Attrs: noinline nounwind uwtable
define dso_local void @main() #0 {
  %1 = alloca [5 x i8], align 1
  %2 = alloca i32, align 4
  %3 = alloca i32, align 4
  %4 = alloca i32, align 4
  store i32 0, i32* %3, align 4
  store i32 0, i32* %2, align 4
  br label %5

5:                                                ; preds = %29, %0
  %6 = load i32, i32* %3, align 4
  %7 = icmp eq i32 %6, 0
  br i1 %7, label %8, label %32

8:                                                ; preds = %5
  %9 = load i32, i32* %2, align 4
  %10 = sext i32 %9 to i64
  %11 = getelementptr inbounds [5 x i8], [5 x i8]* %1, i64 0, i64 %10
  %12 = call i32 (i8*, ...) @__isoc99_scanf(i8* getelementptr inbounds ([3 x i8], [3 x i8]* @.str, i64 0, i64 0), i8* %11)
  %13 = load i32, i32* %2, align 4
  %14 = sext i32 %13 to i64
  %15 = getelementptr inbounds [5 x i8], [5 x i8]* %1, i64 0, i64 %14
  %16 = load i8, i8* %15, align 1
  %17 = sext i8 %16 to i32
  %18 = icmp sgt i32 %17, 48
  br i1 %18, label %19, label %27

19:                                               ; preds = %8
  %20 = load i32, i32* %2, align 4
  %21 = sext i32 %20 to i64
  %22 = getelementptr inbounds [5 x i8], [5 x i8]* %1, i64 0, i64 %21
  %23 = load i8, i8* %22, align 1
  %24 = sext i8 %23 to i32
  %25 = icmp sle i32 %24, 57
  br i1 %25, label %26, label %27

26:                                               ; preds = %19
  store i32 0, i32* %3, align 4
  br label %28

27:                                               ; preds = %19, %8
  store i32 1, i32* %3, align 4
  br label %28

28:                                               ; preds = %27, %26
  br label %29

29:                                               ; preds = %28
  %30 = load i32, i32* %2, align 4
  %31 = add nsw i32 %30, 1
  store i32 %31, i32* %2, align 4
  br label %5

32:                                               ; preds = %5
  %33 = load i32, i32* %2, align 4
  %34 = sub nsw i32 %33, 2
  store i32 %34, i32* %4, align 4
  br label %35

35:                                               ; preds = %45, %32
  %36 = load i32, i32* %4, align 4
  %37 = icmp sge i32 %36, 0
  br i1 %37, label %38, label %48

38:                                               ; preds = %35
  %39 = load i32, i32* %4, align 4
  %40 = sext i32 %39 to i64
  %41 = getelementptr inbounds [5 x i8], [5 x i8]* %1, i64 0, i64 %40
  %42 = load i8, i8* %41, align 1
  %43 = sext i8 %42 to i32
  %44 = call i32 (i8*, ...) @printf(i8* getelementptr inbounds ([3 x i8], [3 x i8]* @.str, i64 0, i64 0), i32 %43)
  br label %45

45:                                               ; preds = %38
  %46 = load i32, i32* %4, align 4
  %47 = add nsw i32 %46, -1
  store i32 %47, i32* %4, align 4
  br label %35

48:                                               ; preds = %35
  ret void
}

declare dso_local i32 @__isoc99_scanf(i8*, ...) #1

declare dso_local i32 @printf(i8*, ...) #1


!llvm.module.flags = !{!0}
!llvm.ident = !{!1}

!0 = !{i32 1, !"wchar_size", i32 4}
!1 = !{!"clang version 10.0.0-4ubuntu1 "}
