; ModuleID = 'source-C-CXX/55/835.c'
source_filename = "source-C-CXX/55/835.c"
target datalayout = "e-m:e-p270:32:32-p271:32:32-p272:64:64-i64:64-f80:128-n8:16:32:64-S128"
target triple = "x86_64-pc-linux-gnu"

@.str = private unnamed_addr constant [3 x i8] c"%c\00", align 1

; Function Attrs: nofree nounwind sspstrong uwtable
define dso_local void @main() local_unnamed_addr #0 {
  %1 = alloca [5 x i8], align 1
  %2 = getelementptr inbounds [5 x i8], [5 x i8]* %1, i64 0, i64 0
  call void @llvm.lifetime.start.p0i8(i64 5, i8* nonnull %2) #4
  br label %3

3:                                                ; preds = %0, %3
  %4 = phi i64 [ 0, %0 ], [ %10, %3 ]
  %5 = getelementptr inbounds [5 x i8], [5 x i8]* %1, i64 0, i64 %4
  %6 = call i32 (i8*, ...) @__isoc99_scanf(i8* getelementptr inbounds ([3 x i8], [3 x i8]* @.str, i64 0, i64 0), i8* nonnull %5)
  %7 = load i8, i8* %5, align 1, !tbaa !5
  %8 = add i8 %7, -49
  %9 = icmp ult i8 %8, 9
  %10 = add nuw i64 %4, 1
  br i1 %9, label %3, label %11

11:                                               ; preds = %3
  %12 = trunc i64 %4 to i32
  %13 = icmp eq i32 %12, 0
  br i1 %13, label %28, label %14

14:                                               ; preds = %11
  %15 = and i64 %4, 4294967295
  br label %16

16:                                               ; preds = %14, %16
  %17 = phi i64 [ %15, %14 ], [ %27, %16 ]
  %18 = phi i32 [ %12, %14 ], [ %19, %16 ]
  %19 = add nsw i32 %18, -1
  %20 = zext i32 %19 to i64
  %21 = getelementptr inbounds [5 x i8], [5 x i8]* %1, i64 0, i64 %20
  %22 = load i8, i8* %21, align 1, !tbaa !5
  %23 = sext i8 %22 to i32
  %24 = call i32 @putchar(i32 %23)
  %25 = trunc i64 %17 to i32
  %26 = icmp sgt i32 %25, 1
  %27 = add nsw i64 %17, -1
  br i1 %26, label %16, label %28, !llvm.loop !8

28:                                               ; preds = %16, %11
  call void @llvm.lifetime.end.p0i8(i64 5, i8* nonnull %2) #4
  ret void
}

; Function Attrs: argmemonly mustprogress nofree nosync nounwind willreturn
declare void @llvm.lifetime.start.p0i8(i64 immarg, i8* nocapture) #1

; Function Attrs: nofree nounwind
declare noundef i32 @__isoc99_scanf(i8* nocapture noundef readonly, ...) local_unnamed_addr #2

; Function Attrs: argmemonly mustprogress nofree nosync nounwind willreturn
declare void @llvm.lifetime.end.p0i8(i64 immarg, i8* nocapture) #1

; Function Attrs: nofree nounwind
declare noundef i32 @putchar(i32 noundef) local_unnamed_addr #3


!llvm.module.flags = !{!0, !1, !2, !3}
!llvm.ident = !{!4}

!0 = !{i32 1, !"wchar_size", i32 4}
!1 = !{i32 7, !"PIC Level", i32 2}
!2 = !{i32 7, !"PIE Level", i32 2}
!3 = !{i32 7, !"uwtable", i32 1}
!4 = !{!"clang version 13.0.0"}
!5 = !{!6, !6, i64 0}
!6 = !{!"omnipotent char", !7, i64 0}
!7 = !{!"Simple C/C++ TBAA"}
!8 = distinct !{!8, !9}
!9 = !{!"llvm.loop.mustprogress"}
